; ModuleID = '37/39.c'
source_filename = "37/39.c"
target datalayout = "e-m:e-p270:32:32-p271:32:32-p272:64:64-i64:64-f80:128-n8:16:32:64-S128"
target triple = "x86_64-pc-linux-gnu"

@.str = private unnamed_addr constant [3 x i8] c"%d\00", align 1
@t = common dso_local global i32 0, align 4
@i = common dso_local global i32 0, align 4
@k = common dso_local global i32 0, align 4
@bucket = common dso_local global [26 x i32] zeroinitializer, align 16
@.str.1 = private unnamed_addr constant [3 x i8] c"%s\00", align 1
@s = common dso_local global [100001 x i8] zeroinitializer, align 16
@j = common dso_local global i32 0, align 4
@len = common dso_local global i32 0, align 4
@.str.2 = private unnamed_addr constant [4 x i8] c"%c\0A\00", align 1
@.str.3 = private unnamed_addr constant [4 x i8] c"no\0A\00", align 1

; Function Attrs: noinline nounwind uwtable
define dso_local i32 @main() #0 {
  %1 = alloca i32, align 4
  store i32 0, i32* %1, align 4
  %2 = call i32 (i8*, ...) @__isoc99_scanf(i8* getelementptr inbounds ([3 x i8], [3 x i8]* @.str, i64 0, i64 0), i32* @t)
  store i32 0, i32* @i, align 4
  br label %3

3:                                                ; preds = %78, %0
  %4 = load i32, i32* @i, align 4
  %5 = load i32, i32* @t, align 4
  %6 = icmp slt i32 %4, %5
  br i1 %6, label %7, label %81

7:                                                ; preds = %3
  store i32 0, i32* @k, align 4
  br label %8

8:                                                ; preds = %15, %7
  %9 = load i32, i32* @k, align 4
  %10 = icmp slt i32 %9, 26
  br i1 %10, label %11, label %18

11:                                               ; preds = %8
  %12 = load i32, i32* @k, align 4
  %13 = sext i32 %12 to i64
  %14 = getelementptr inbounds [26 x i32], [26 x i32]* @bucket, i64 0, i64 %13
  store i32 0, i32* %14, align 4
  br label %15

15:                                               ; preds = %11
  %16 = load i32, i32* @k, align 4
  %17 = add nsw i32 %16, 1
  store i32 %17, i32* @k, align 4
  br label %8

18:                                               ; preds = %8
  %19 = call i32 (i8*, ...) @__isoc99_scanf(i8* getelementptr inbounds ([3 x i8], [3 x i8]* @.str.1, i64 0, i64 0), i8* getelementptr inbounds ([100001 x i8], [100001 x i8]* @s, i64 0, i64 0))
  br label %20

20:                                               ; preds = %27, %18
  %21 = load i32, i32* @j, align 4
  %22 = sext i32 %21 to i64
  %23 = getelementptr inbounds [100001 x i8], [100001 x i8]* @s, i64 0, i64 %22
  %24 = load i8, i8* %23, align 1
  %25 = sext i8 %24 to i32
  %26 = icmp ne i32 %25, 0
  br i1 %26, label %27, label %40

27:                                               ; preds = %20
  %28 = load i32, i32* @j, align 4
  %29 = sext i32 %28 to i64
  %30 = getelementptr inbounds [100001 x i8], [100001 x i8]* @s, i64 0, i64 %29
  %31 = load i8, i8* %30, align 1
  %32 = sext i8 %31 to i32
  %33 = sub nsw i32 %32, 97
  %34 = sext i32 %33 to i64
  %35 = getelementptr inbounds [26 x i32], [26 x i32]* @bucket, i64 0, i64 %34
  %36 = load i32, i32* %35, align 4
  %37 = add nsw i32 %36, 1
  store i32 %37, i32* %35, align 4
  %38 = load i32, i32* @j, align 4
  %39 = add nsw i32 %38, 1
  store i32 %39, i32* @j, align 4
  br label %20

40:                                               ; preds = %20
  %41 = load i32, i32* @j, align 4
  store i32 %41, i32* @len, align 4
  store i32 0, i32* @j, align 4
  br label %42

42:                                               ; preds = %70, %40
  %43 = load i32, i32* @j, align 4
  %44 = sext i32 %43 to i64
  %45 = getelementptr inbounds [100001 x i8], [100001 x i8]* @s, i64 0, i64 %44
  %46 = load i8, i8* %45, align 1
  %47 = sext i8 %46 to i32
  %48 = icmp ne i32 %47, 0
  br i1 %48, label %49, label %71

49:                                               ; preds = %42
  %50 = load i32, i32* @j, align 4
  %51 = sext i32 %50 to i64
  %52 = getelementptr inbounds [100001 x i8], [100001 x i8]* @s, i64 0, i64 %51
  %53 = load i8, i8* %52, align 1
  %54 = sext i8 %53 to i32
  %55 = sub nsw i32 %54, 97
  %56 = sext i32 %55 to i64
  %57 = getelementptr inbounds [26 x i32], [26 x i32]* @bucket, i64 0, i64 %56
  %58 = load i32, i32* %57, align 4
  %59 = icmp eq i32 %58, 1
  br i1 %59, label %60, label %67

60:                                               ; preds = %49
  %61 = load i32, i32* @j, align 4
  %62 = sext i32 %61 to i64
  %63 = getelementptr inbounds [100001 x i8], [100001 x i8]* @s, i64 0, i64 %62
  %64 = load i8, i8* %63, align 1
  %65 = sext i8 %64 to i32
  %66 = call i32 (i8*, ...) @printf(i8* getelementptr inbounds ([4 x i8], [4 x i8]* @.str.2, i64 0, i64 0), i32 %65)
  br label %71

67:                                               ; preds = %49
  %68 = load i32, i32* @j, align 4
  %69 = add nsw i32 %68, 1
  store i32 %69, i32* @j, align 4
  br label %70

70:                                               ; preds = %67
  br label %42

71:                                               ; preds = %60, %42
  %72 = load i32, i32* @j, align 4
  %73 = load i32, i32* @len, align 4
  %74 = icmp eq i32 %72, %73
  br i1 %74, label %75, label %77

75:                                               ; preds = %71
  %76 = call i32 (i8*, ...) @printf(i8* getelementptr inbounds ([4 x i8], [4 x i8]* @.str.3, i64 0, i64 0))
  br label %77

77:                                               ; preds = %75, %71
  store i32 0, i32* @j, align 4
  br label %78

78:                                               ; preds = %77
  %79 = load i32, i32* @i, align 4
  %80 = add nsw i32 %79, 1
  store i32 %80, i32* @i, align 4
  br label %3

81:                                               ; preds = %3
  ret i32 0
}

declare dso_local i32 @__isoc99_scanf(i8*, ...) #1

declare dso_local i32 @printf(i8*, ...) #1


!llvm.module.flags = !{!0}
!llvm.ident = !{!1}

!0 = !{i32 1, !"wchar_size", i32 4}
!1 = !{!"clang version 10.0.0-4ubuntu1 "}
